Certificate:
    Data:
        Version: 3 (0x2)
        Serial Number:
            b3:5e:12:43:dd:a8:51:41
        Signature Algorithm: sha1WithRSAEncryption
        Issuer: C=US, ST=Oklahoma, O=Joseph Holsten, CN=Joseph Holsten/emailAddress=joseph@josephholsten.com
        Validity
            Not Before: Jul 24 06:35:55 2009 GMT
            Not After : Jul 23 06:35:55 2012 GMT
        Subject: C=US, ST=Oklahoma, O=Joseph Holsten, CN=Joseph Holsten/emailAddress=joseph@josephholsten.com
        Subject Public Key Info:
            Public Key Algorithm: rsaEncryption
            RSA Public Key: (1024 bit)
                Modulus (1024 bit):
                    00:c4:26:93:8c:63:39:10:f2:3e:76:04:f9:c3:04:
                    b3:88:f1:c9:ad:fe:2e:78:b1:d4:2f:6c:7e:53:62:
                    bc:fc:a3:43:67:2a:51:f6:3d:aa:df:9c:26:6f:3b:
                    0c:a1:ff:62:cb:9e:2f:21:e7:9c:f7:4b:42:b6:5b:
                    29:14:fb:8b:33:89:22:e8:11:1c:0e:ac:13:07:6d:
                    61:20:46:23:bc:09:b6:83:4b:3e:d9:f5:d2:6d:00:
                    8b:cf:63:57:90:8b:d0:2d:a2:48:9b:db:68:86:17:
                    fa:3e:f1:7c:72:ec:89:47:33:d7:2a:77:90:81:40:
                    6a:f7:0d:7c:7a:57:c3:cf:53
                Exponent: 65537 (0x10001)
        X509v3 extensions:
            X509v3 Subject Key Identifier: 
                9C:0D:1E:D3:7E:84:4B:74:64:3D:12:E2:BE:B2:09:C9:C1:34:AE:1A
            X509v3 Authority Key Identifier: 
                keyid:9C:0D:1E:D3:7E:84:4B:74:64:3D:12:E2:BE:B2:09:C9:C1:34:AE:1A
                DirName:/C=US/ST=Oklahoma/O=Joseph Holsten/CN=Joseph Holsten/emailAddress=joseph@josephholsten.com
                serial:B3:5E:12:43:DD:A8:51:41

            X509v3 Basic Constraints: 
                CA:TRUE
    Signature Algorithm: sha1WithRSAEncryption
        90:66:22:71:8a:5f:35:30:71:64:41:bc:f6:64:ef:22:47:f4:
        11:ed:2e:89:29:e2:25:e4:64:81:7d:2e:1c:a4:e1:4a:82:3c:
        a6:4c:30:2d:85:70:57:d0:e1:66:e3:0c:a3:83:8e:10:6c:92:
        54:86:64:91:c6:4c:72:c1:8d:e8:4d:85:18:51:1f:64:70:09:
        5d:da:ff:22:5b:97:f7:56:8c:20:88:e3:4f:e8:cc:bb:9b:c4:
        af:d5:46:98:25:79:06:b8:4d:c6:05:ec:2d:11:d2:d3:33:8f:
        55:30:d4:e7:f7:ad:a2:aa:62:b8:b1:ee:9b:2c:52:1e:24:7d:
        20:6d
-----BEGIN CERTIFICATE-----
MIIDVTCCAr6gAwIBAgIJALNeEkPdqFFBMA0GCSqGSIb3DQEBBQUAMHsxCzAJBgNV
BAYTAlVTMREwDwYDVQQIEwhPa2xhaG9tYTEXMBUGA1UEChMOSm9zZXBoIEhvbHN0
ZW4xFzAVBgNVBAMTDkpvc2VwaCBIb2xzdGVuMScwJQYJKoZIhvcNAQkBFhhqb3Nl
cGhAam9zZXBoaG9sc3Rlbi5jb20wHhcNMDkwNzI0MDYzNTU1WhcNMTIwNzIzMDYz
NTU1WjB7MQswCQYDVQQGEwJVUzERMA8GA1UECBMIT2tsYWhvbWExFzAVBgNVBAoT
Dkpvc2VwaCBIb2xzdGVuMRcwFQYDVQQDEw5Kb3NlcGggSG9sc3RlbjEnMCUGCSqG
SIb3DQEJARYYam9zZXBoQGpvc2VwaGhvbHN0ZW4uY29tMIGfMA0GCSqGSIb3DQEB
AQUAA4GNADCBiQKBgQDEJpOMYzkQ8j52BPnDBLOI8cmt/i54sdQvbH5TYrz8o0Nn
KlH2ParfnCZvOwyh/2LLni8h55z3S0K2WykU+4sziSLoERwOrBMHbWEgRiO8CbaD
Sz7Z9dJtAIvPY1eQi9Atokib22iGF/o+8Xxy7IlHM9cqd5CBQGr3DXx6V8PPUwID
AQABo4HgMIHdMB0GA1UdDgQWBBScDR7TfoRLdGQ9EuK+sgnJwTSuGjCBrQYDVR0j
BIGlMIGigBScDR7TfoRLdGQ9EuK+sgnJwTSuGqF/pH0wezELMAkGA1UEBhMCVVMx
ETAPBgNVBAgTCE9rbGFob21hMRcwFQYDVQQKEw5Kb3NlcGggSG9sc3RlbjEXMBUG
A1UEAxMOSm9zZXBoIEhvbHN0ZW4xJzAlBgkqhkiG9w0BCQEWGGpvc2VwaEBqb3Nl
cGhob2xzdGVuLmNvbYIJALNeEkPdqFFBMAwGA1UdEwQFMAMBAf8wDQYJKoZIhvcN
AQEFBQADgYEAkGYicYpfNTBxZEG89mTvIkf0Ee0uiSniJeRkgX0uHKThSoI8pkww
LYVwV9DhZuMMo4OOEGySVIZkkcZMcsGN6E2FGFEfZHAJXdr/IluX91aMIIjjT+jM
u5vEr9VGmCV5BrhNxgXsLRHS0zOPVTDU5/etoqpiuLHumyxSHiR9IG0=
-----END CERTIFICATE-----
