Certificate:
    Data:
        Version: 3 (0x2)
        Serial Number:
            b3:5e:12:43:dd:a8:51:42
        Signature Algorithm: sha1WithRSAEncryption
        Issuer: C=US, ST=Oklahoma, O=Joseph Holsten, CN=Joseph Holsten/emailAddress=joseph@josephholsten.com
        Validity
            Not Before: Jul 24 06:37:45 2009 GMT
            Not After : Jul 24 06:37:45 2010 GMT
        Subject: C=US, ST=Oklahoma, L=Tulsa, O=Joseph Holsten, CN=Joseph Holsten/emailAddress=joseph@josephholsten.com
        Subject Public Key Info:
            Public Key Algorithm: rsaEncryption
            RSA Public Key: (1024 bit)
                Modulus (1024 bit):
                    00:cd:a7:52:40:7e:1b:49:14:ef:25:4c:ef:08:69:
                    0b:77:3b:29:b9:5f:db:ab:8e:93:be:a4:0b:e5:07:
                    32:f7:69:d7:49:66:f6:e2:ab:37:cc:01:e3:83:14:
                    f5:34:48:82:fb:04:d5:c7:f6:5b:ed:0e:77:15:82:
                    eb:2d:d6:9a:98:ae:72:4b:b3:8f:94:90:e8:49:66:
                    ef:05:8b:3d:81:eb:70:e4:22:af:0a:ea:1a:fd:f6:
                    b3:aa:d5:c5:9b:c6:39:f2:37:7e:95:11:3e:dc:ba:
                    c0:54:3a:a4:2f:dd:a4:c1:bb:d9:79:4b:38:d9:9c:
                    f7:f5:c4:02:df:43:f0:73:9b
                Exponent: 65537 (0x10001)
        X509v3 extensions:
            X509v3 Basic Constraints: 
                CA:FALSE
            Netscape Comment: 
                OpenSSL Generated Certificate
            X509v3 Subject Key Identifier: 
                E0:9F:B8:17:CA:F0:21:B1:32:30:43:D9:B5:05:25:A0:B9:11:80:92
            X509v3 Authority Key Identifier: 
                keyid:9C:0D:1E:D3:7E:84:4B:74:64:3D:12:E2:BE:B2:09:C9:C1:34:AE:1A

    Signature Algorithm: sha1WithRSAEncryption
        4d:3d:2f:95:9d:01:ab:38:23:b4:5c:64:08:82:c9:14:df:0f:
        b7:9e:e1:da:f6:3c:ba:f1:db:42:82:fd:f8:6b:97:09:c2:c0:
        75:0e:39:5d:43:97:50:db:30:12:d7:6a:ef:68:4f:fa:11:53:
        ea:15:7b:5e:63:d3:af:90:40:9e:1b:e7:f2:b9:71:a3:73:03:
        b9:19:79:9e:23:8b:09:ca:21:10:4c:88:8e:7d:d6:2f:1e:56:
        6e:f7:7e:5d:25:63:62:06:e3:bf:aa:f6:fd:2c:2e:9e:83:23:
        e9:be:97:e3:00:d2:bd:24:75:e3:bf:97:a6:81:27:0f:67:0a:
        d4:47
-----BEGIN CERTIFICATE-----
MIIDADCCAmmgAwIBAgIJALNeEkPdqFFCMA0GCSqGSIb3DQEBBQUAMHsxCzAJBgNV
BAYTAlVTMREwDwYDVQQIEwhPa2xhaG9tYTEXMBUGA1UEChMOSm9zZXBoIEhvbHN0
ZW4xFzAVBgNVBAMTDkpvc2VwaCBIb2xzdGVuMScwJQYJKoZIhvcNAQkBFhhqb3Nl
cGhAam9zZXBoaG9sc3Rlbi5jb20wHhcNMDkwNzI0MDYzNzQ1WhcNMTAwNzI0MDYz
NzQ1WjCBizELMAkGA1UEBhMCVVMxETAPBgNVBAgTCE9rbGFob21hMQ4wDAYDVQQH
EwVUdWxzYTEXMBUGA1UEChMOSm9zZXBoIEhvbHN0ZW4xFzAVBgNVBAMTDkpvc2Vw
aCBIb2xzdGVuMScwJQYJKoZIhvcNAQkBFhhqb3NlcGhAam9zZXBoaG9sc3Rlbi5j
b20wgZ8wDQYJKoZIhvcNAQEBBQADgY0AMIGJAoGBAM2nUkB+G0kU7yVM7whpC3c7
Kblf26uOk76kC+UHMvdp10lm9uKrN8wB44MU9TRIgvsE1cf2W+0OdxWC6y3Wmpiu
ckuzj5SQ6Elm7wWLPYHrcOQirwrqGv32s6rVxZvGOfI3fpURPty6wFQ6pC/dpMG7
2XlLONmc9/XEAt9D8HObAgMBAAGjezB5MAkGA1UdEwQCMAAwLAYJYIZIAYb4QgEN
BB8WHU9wZW5TU0wgR2VuZXJhdGVkIENlcnRpZmljYXRlMB0GA1UdDgQWBBTgn7gX
yvAhsTIwQ9m1BSWguRGAkjAfBgNVHSMEGDAWgBScDR7TfoRLdGQ9EuK+sgnJwTSu
GjANBgkqhkiG9w0BAQUFAAOBgQBNPS+VnQGrOCO0XGQIgskU3w+3nuHa9jy68dtC
gv34a5cJwsB1DjldQ5dQ2zAS12rvaE/6EVPqFXteY9OvkECeG+fyuXGjcwO5GXme
I4sJyiEQTIiOfdYvHlZu935dJWNiBuO/qvb9LC6egyPpvpfjANK9JHXjv5emgScP
ZwrURw==
-----END CERTIFICATE-----
